; Function Attrs: nounwind uwtable
define ptr @l_Std_DTreeMap_Internal_Impl_forInStep___at___private_Lean_Meta_Tactic_Grind_Inv_0__Lean_Meta_Grind_checkParents___spec__3___lambda__3___boxed(ptr noundef %0, ptr noundef %1, ptr noundef %2, ptr noundef %3, ptr noundef %4, ptr noundef %5, ptr noundef %6, ptr noundef %7, ptr noundef %8, ptr noundef %9, ptr noundef %10, ptr noundef %11, ptr noundef %12, ptr noundef %13) local_unnamed_addr #0 {
  %15 = ptrtoint ptr %3 to i64
  %16 = lshr i64 %15, 1
  %17 = trunc i64 %16 to i8
  %18 = and i64 %15, 1
  %.not = icmp eq i64 %18, 0
  br i1 %.not, label %19, label %lean_dec.exit21

19:                                               ; preds = %14
  %20 = load i32, ptr %3, align 4, !tbaa !8
  %21 = icmp sgt i32 %20, 1
  br i1 %21, label %22, label %24, !prof !11

22:                                               ; preds = %19
  %23 = add nsw i32 %20, -1
  store i32 %23, ptr %3, align 4, !tbaa !8
  br label %lean_dec.exit21

24:                                               ; preds = %19
  %.not.i = icmp eq i32 %20, 0
  br i1 %.not.i, label %lean_dec.exit21, label %25

25:                                               ; preds = %24
  tail call void @lean_dec_ref_cold(ptr noundef nonnull %3) #4
  br label %lean_dec.exit21

lean_dec.exit21:                                  ; preds = %25, %24, %22, %14
  %26 = tail call ptr @l_Std_DTreeMap_Internal_Impl_forInStep___at___private_Lean_Meta_Tactic_Grind_Inv_0__Lean_Meta_Grind_checkParents___spec__3___lambda__3(ptr noundef %0, ptr noundef %1, ptr noundef %2, i8 noundef zeroext %17, ptr poison, ptr noundef %5, ptr noundef %6, ptr noundef %7, ptr noundef %8, ptr noundef %9, ptr noundef %10, ptr noundef %11, ptr noundef %12, ptr noundef %13)
  %27 = ptrtoint ptr %4 to i64
  %28 = and i64 %27, 1
  %.not28 = icmp eq i64 %28, 0
  br i1 %.not28, label %29, label %lean_dec.exit20

29:                                               ; preds = %lean_dec.exit21
  %30 = load i32, ptr %4, align 4, !tbaa !8
  %31 = icmp sgt i32 %30, 1
  br i1 %31, label %32, label %34, !prof !11

32:                                               ; preds = %29
  %33 = add nsw i32 %30, -1
  store i32 %33, ptr %4, align 4, !tbaa !8
  br label %lean_dec.exit20

34:                                               ; preds = %29
  %.not.i22 = icmp eq i32 %30, 0
  br i1 %.not.i22, label %lean_dec.exit20, label %35

35:                                               ; preds = %34
  tail call void @lean_dec_ref_cold(ptr noundef nonnull %4) #4
  br label %lean_dec.exit20

lean_dec.exit20:                                  ; preds = %35, %34, %32, %lean_dec.exit21
  %36 = ptrtoint ptr %1 to i64
  %37 = and i64 %36, 1
  %.not29 = icmp eq i64 %37, 0
  br i1 %.not29, label %38, label %lean_dec.exit19

38:                                               ; preds = %lean_dec.exit20
  %39 = load i32, ptr %1, align 4, !tbaa !8
  %40 = icmp sgt i32 %39, 1
  br i1 %40, label %41, label %43, !prof !11

41:                                               ; preds = %38
  %42 = add nsw i32 %39, -1
  store i32 %42, ptr %1, align 4, !tbaa !8
  br label %lean_dec.exit19

43:                                               ; preds = %38
  %.not.i24 = icmp eq i32 %39, 0
  br i1 %.not.i24, label %lean_dec.exit19, label %44

44:                                               ; preds = %43
  tail call void @lean_dec_ref_cold(ptr noundef nonnull %1) #4
  br label %lean_dec.exit19

lean_dec.exit19:                                  ; preds = %44, %43, %41, %lean_dec.exit20
  %45 = ptrtoint ptr %0 to i64
  %46 = and i64 %45, 1
  %.not30 = icmp eq i64 %46, 0
  br i1 %.not30, label %47, label %lean_dec.exit

47:                                               ; preds = %lean_dec.exit19
  %48 = load i32, ptr %0, align 4, !tbaa !8
  %49 = icmp sgt i32 %48, 1
  br i1 %49, label %50, label %52, !prof !11

50:                                               ; preds = %47
  %51 = add nsw i32 %48, -1
  store i32 %51, ptr %0, align 4, !tbaa !8
  br label %lean_dec.exit

52:                                               ; preds = %47
  %.not.i26 = icmp eq i32 %48, 0
  br i1 %.not.i26, label %lean_dec.exit, label %53

53:                                               ; preds = %52
  tail call void @lean_dec_ref_cold(ptr noundef nonnull %0) #4
  br label %lean_dec.exit

lean_dec.exit:                                    ; preds = %53, %52, %50, %lean_dec.exit19
  ret ptr %26
}